target datalayout = "e-m:e-p270:32:32-p271:32:32-p272:64:64-i64:64-i128:128-f80:128-n8:16:32:64-S128"
target triple = "x86_64-pc-linux-gnu"

%struct.block = type { ptr, ptr }

@.str.10 = private unnamed_addr constant [8 x i8] c"_modify\00", align 1
@.str.49 = private unnamed_addr constant [4 x i8] c"tmp\00", align 1

; Function Attrs: nounwind uwtable
define internal { ptr, ptr } @gen_definedor_assign(ptr %0, ptr %1, ptr %2, ptr %3) #0 {
  %5 = alloca %struct.block, align 8
  %6 = alloca %struct.block, align 8
  %7 = alloca %struct.block, align 8
  %8 = alloca %struct.block, align 8
  %9 = alloca %struct.block, align 8
  %10 = alloca %struct.block, align 8
  %11 = alloca %struct.block, align 8
  %12 = alloca %struct.block, align 8
  %13 = alloca %struct.block, align 8
  %14 = alloca %struct.block, align 8
  %15 = alloca %struct.block, align 8
  %16 = alloca %struct.block, align 8
  %17 = alloca %struct.block, align 8
  %18 = alloca %struct.block, align 8
  %19 = getelementptr inbounds nuw { ptr, ptr }, ptr %6, i32 0, i32 0
  store ptr %0, ptr %19, align 8
  %20 = getelementptr inbounds nuw { ptr, ptr }, ptr %6, i32 0, i32 1
  store ptr %1, ptr %20, align 8
  %21 = getelementptr inbounds nuw { ptr, ptr }, ptr %7, i32 0, i32 0
  store ptr %2, ptr %21, align 8
  %22 = getelementptr inbounds nuw { ptr, ptr }, ptr %7, i32 0, i32 1
  store ptr %3, ptr %22, align 8
  call void @llvm.lifetime.start.p0(i64 16, ptr %8) #8
  %23 = call { ptr, ptr } @gen_op_var_fresh(i32 noundef 8, ptr noundef @.str.49)
  %24 = getelementptr inbounds nuw { ptr, ptr }, ptr %8, i32 0, i32 0
  %25 = extractvalue { ptr, ptr } %23, 0
  store ptr %25, ptr %24, align 8
  %26 = getelementptr inbounds nuw { ptr, ptr }, ptr %8, i32 0, i32 1
  %27 = extractvalue { ptr, ptr } %23, 1
  store ptr %27, ptr %26, align 8
  %28 = call { ptr, ptr } @gen_op_simple(i32 noundef 1)
  %29 = getelementptr inbounds nuw { ptr, ptr }, ptr %11, i32 0, i32 0
  %30 = extractvalue { ptr, ptr } %28, 0
  store ptr %30, ptr %29, align 8
  %31 = getelementptr inbounds nuw { ptr, ptr }, ptr %11, i32 0, i32 1
  %32 = extractvalue { ptr, ptr } %28, 1
  store ptr %32, ptr %31, align 8
  %33 = getelementptr inbounds nuw { ptr, ptr }, ptr %11, i32 0, i32 0
  %34 = load ptr, ptr %33, align 8
  %35 = getelementptr inbounds nuw { ptr, ptr }, ptr %11, i32 0, i32 1
  %36 = load ptr, ptr %35, align 8
  %37 = getelementptr inbounds nuw { ptr, ptr }, ptr %7, i32 0, i32 0
  %38 = load ptr, ptr %37, align 8
  %39 = getelementptr inbounds nuw { ptr, ptr }, ptr %7, i32 0, i32 1
  %40 = load ptr, ptr %39, align 8
  %41 = call { ptr, ptr } @block_join(ptr %34, ptr %36, ptr %38, ptr %40)
  %42 = getelementptr inbounds nuw { ptr, ptr }, ptr %10, i32 0, i32 0
  %43 = extractvalue { ptr, ptr } %41, 0
  store ptr %43, ptr %42, align 8
  %44 = getelementptr inbounds nuw { ptr, ptr }, ptr %10, i32 0, i32 1
  %45 = extractvalue { ptr, ptr } %41, 1
  store ptr %45, ptr %44, align 8
  %46 = getelementptr inbounds nuw { ptr, ptr }, ptr %10, i32 0, i32 0
  %47 = load ptr, ptr %46, align 8
  %48 = getelementptr inbounds nuw { ptr, ptr }, ptr %10, i32 0, i32 1
  %49 = load ptr, ptr %48, align 8
  %50 = getelementptr inbounds nuw { ptr, ptr }, ptr %8, i32 0, i32 0
  %51 = load ptr, ptr %50, align 8
  %52 = getelementptr inbounds nuw { ptr, ptr }, ptr %8, i32 0, i32 1
  %53 = load ptr, ptr %52, align 8
  %54 = call { ptr, ptr } @block_join(ptr %47, ptr %49, ptr %51, ptr %53)
  %55 = getelementptr inbounds nuw { ptr, ptr }, ptr %9, i32 0, i32 0
  %56 = extractvalue { ptr, ptr } %54, 0
  store ptr %56, ptr %55, align 8
  %57 = getelementptr inbounds nuw { ptr, ptr }, ptr %9, i32 0, i32 1
  %58 = extractvalue { ptr, ptr } %54, 1
  store ptr %58, ptr %57, align 8
  %59 = getelementptr inbounds nuw { ptr, ptr }, ptr %6, i32 0, i32 0
  %60 = load ptr, ptr %59, align 8
  %61 = getelementptr inbounds nuw { ptr, ptr }, ptr %6, i32 0, i32 1
  %62 = load ptr, ptr %61, align 8
  %63 = call { ptr, ptr } @gen_lambda(ptr %60, ptr %62)
  %64 = getelementptr inbounds nuw { ptr, ptr }, ptr %14, i32 0, i32 0
  %65 = extractvalue { ptr, ptr } %63, 0
  store ptr %65, ptr %64, align 8
  %66 = getelementptr inbounds nuw { ptr, ptr }, ptr %14, i32 0, i32 1
  %67 = extractvalue { ptr, ptr } %63, 1
  store ptr %67, ptr %66, align 8
  %68 = call { ptr, ptr } (...) @gen_noop()
  %69 = getelementptr inbounds nuw { ptr, ptr }, ptr %17, i32 0, i32 0
  %70 = extractvalue { ptr, ptr } %68, 0
  store ptr %70, ptr %69, align 8
  %71 = getelementptr inbounds nuw { ptr, ptr }, ptr %17, i32 0, i32 1
  %72 = extractvalue { ptr, ptr } %68, 1
  store ptr %72, ptr %71, align 8
  %73 = getelementptr inbounds nuw { ptr, ptr }, ptr %8, i32 0, i32 0
  %74 = load ptr, ptr %73, align 8
  %75 = getelementptr inbounds nuw { ptr, ptr }, ptr %8, i32 0, i32 1
  %76 = load ptr, ptr %75, align 8
  %77 = call { ptr, ptr } @gen_op_bound(i32 noundef 6, ptr %74, ptr %76)
  %78 = getelementptr inbounds nuw { ptr, ptr }, ptr %18, i32 0, i32 0
  %79 = extractvalue { ptr, ptr } %77, 0
  store ptr %79, ptr %78, align 8
  %80 = getelementptr inbounds nuw { ptr, ptr }, ptr %18, i32 0, i32 1
  %81 = extractvalue { ptr, ptr } %77, 1
  store ptr %81, ptr %80, align 8
  %82 = getelementptr inbounds nuw { ptr, ptr }, ptr %17, i32 0, i32 0
  %83 = load ptr, ptr %82, align 8
  %84 = getelementptr inbounds nuw { ptr, ptr }, ptr %17, i32 0, i32 1
  %85 = load ptr, ptr %84, align 8
  %86 = getelementptr inbounds nuw { ptr, ptr }, ptr %18, i32 0, i32 0
  %87 = load ptr, ptr %86, align 8
  %88 = getelementptr inbounds nuw { ptr, ptr }, ptr %18, i32 0, i32 1
  %89 = load ptr, ptr %88, align 8
  %90 = call { ptr, ptr } @gen_definedor(ptr %83, ptr %85, ptr %87, ptr %89)
  %91 = getelementptr inbounds nuw { ptr, ptr }, ptr %16, i32 0, i32 0
  %92 = extractvalue { ptr, ptr } %90, 0
  store ptr %92, ptr %91, align 8
  %93 = getelementptr inbounds nuw { ptr, ptr }, ptr %16, i32 0, i32 1
  %94 = extractvalue { ptr, ptr } %90, 1
  store ptr %94, ptr %93, align 8
  %95 = getelementptr inbounds nuw { ptr, ptr }, ptr %16, i32 0, i32 0
  %96 = load ptr, ptr %95, align 8
  %97 = getelementptr inbounds nuw { ptr, ptr }, ptr %16, i32 0, i32 1
  %98 = load ptr, ptr %97, align 8
  %99 = call { ptr, ptr } @gen_lambda(ptr %96, ptr %98)
  %100 = getelementptr inbounds nuw { ptr, ptr }, ptr %15, i32 0, i32 0
  %101 = extractvalue { ptr, ptr } %99, 0
  store ptr %101, ptr %100, align 8
  %102 = getelementptr inbounds nuw { ptr, ptr }, ptr %15, i32 0, i32 1
  %103 = extractvalue { ptr, ptr } %99, 1
  store ptr %103, ptr %102, align 8
  %104 = getelementptr inbounds nuw { ptr, ptr }, ptr %14, i32 0, i32 0
  %105 = load ptr, ptr %104, align 8
  %106 = getelementptr inbounds nuw { ptr, ptr }, ptr %14, i32 0, i32 1
  %107 = load ptr, ptr %106, align 8
  %108 = getelementptr inbounds nuw { ptr, ptr }, ptr %15, i32 0, i32 0
  %109 = load ptr, ptr %108, align 8
  %110 = getelementptr inbounds nuw { ptr, ptr }, ptr %15, i32 0, i32 1
  %111 = load ptr, ptr %110, align 8
  %112 = call { ptr, ptr } @block_join(ptr %105, ptr %107, ptr %109, ptr %111)
  %113 = getelementptr inbounds nuw { ptr, ptr }, ptr %13, i32 0, i32 0
  %114 = extractvalue { ptr, ptr } %112, 0
  store ptr %114, ptr %113, align 8
  %115 = getelementptr inbounds nuw { ptr, ptr }, ptr %13, i32 0, i32 1
  %116 = extractvalue { ptr, ptr } %112, 1
  store ptr %116, ptr %115, align 8
  %117 = getelementptr inbounds nuw { ptr, ptr }, ptr %13, i32 0, i32 0
  %118 = load ptr, ptr %117, align 8
  %119 = getelementptr inbounds nuw { ptr, ptr }, ptr %13, i32 0, i32 1
  %120 = load ptr, ptr %119, align 8
  %121 = call { ptr, ptr } @gen_call(ptr noundef @.str.10, ptr %118, ptr %120)
  %122 = getelementptr inbounds nuw { ptr, ptr }, ptr %12, i32 0, i32 0
  %123 = extractvalue { ptr, ptr } %121, 0
  store ptr %123, ptr %122, align 8
  %124 = getelementptr inbounds nuw { ptr, ptr }, ptr %12, i32 0, i32 1
  %125 = extractvalue { ptr, ptr } %121, 1
  store ptr %125, ptr %124, align 8
  %126 = getelementptr inbounds nuw { ptr, ptr }, ptr %9, i32 0, i32 0
  %127 = load ptr, ptr %126, align 8
  %128 = getelementptr inbounds nuw { ptr, ptr }, ptr %9, i32 0, i32 1
  %129 = load ptr, ptr %128, align 8
  %130 = getelementptr inbounds nuw { ptr, ptr }, ptr %12, i32 0, i32 0
  %131 = load ptr, ptr %130, align 8
  %132 = getelementptr inbounds nuw { ptr, ptr }, ptr %12, i32 0, i32 1
  %133 = load ptr, ptr %132, align 8
  %134 = call { ptr, ptr } @block_join(ptr %127, ptr %129, ptr %131, ptr %133)
  %135 = getelementptr inbounds nuw { ptr, ptr }, ptr %5, i32 0, i32 0
  %136 = extractvalue { ptr, ptr } %134, 0
  store ptr %136, ptr %135, align 8
  %137 = getelementptr inbounds nuw { ptr, ptr }, ptr %5, i32 0, i32 1
  %138 = extractvalue { ptr, ptr } %134, 1
  store ptr %138, ptr %137, align 8
  call void @llvm.lifetime.end.p0(i64 16, ptr %8) #8
  %139 = load { ptr, ptr }, ptr %5, align 8
  ret { ptr, ptr } %139
}