; Function Attrs: nounwind uwtable
define internal fastcc { ptr, ptr } @gen_definedor_assign(ptr %0, ptr %1, ptr %2, ptr %3) unnamed_addr #0 {
  %5 = tail call { ptr, ptr } @gen_op_var_fresh(i32 noundef 8, ptr noundef nonnull @.str.49) #10
  %6 = extractvalue { ptr, ptr } %5, 0
  %7 = extractvalue { ptr, ptr } %5, 1
  %8 = tail call { ptr, ptr } @gen_op_simple(i32 noundef 1) #10
  %9 = extractvalue { ptr, ptr } %8, 0
  %10 = extractvalue { ptr, ptr } %8, 1
  %11 = tail call { ptr, ptr } @block_join(ptr %9, ptr %10, ptr %2, ptr %3) #10
  %12 = extractvalue { ptr, ptr } %11, 0
  %13 = extractvalue { ptr, ptr } %11, 1
  %14 = tail call { ptr, ptr } @block_join(ptr %12, ptr %13, ptr %6, ptr %7) #10
  %15 = extractvalue { ptr, ptr } %14, 0
  %16 = extractvalue { ptr, ptr } %14, 1
  %17 = tail call { ptr, ptr } @gen_lambda(ptr %0, ptr %1) #10
  %18 = extractvalue { ptr, ptr } %17, 0
  %19 = extractvalue { ptr, ptr } %17, 1
  %20 = tail call { ptr, ptr } (...) @gen_noop() #10
  %21 = extractvalue { ptr, ptr } %20, 0
  %22 = extractvalue { ptr, ptr } %20, 1
  %23 = tail call { ptr, ptr } @gen_op_bound(i32 noundef 6, ptr %6, ptr %7) #10
  %24 = extractvalue { ptr, ptr } %23, 0
  %25 = extractvalue { ptr, ptr } %23, 1
  %26 = tail call { ptr, ptr } @gen_definedor(ptr %21, ptr %22, ptr %24, ptr %25) #10
  %27 = extractvalue { ptr, ptr } %26, 0
  %28 = extractvalue { ptr, ptr } %26, 1
  %29 = tail call { ptr, ptr } @gen_lambda(ptr %27, ptr %28) #10
  %30 = extractvalue { ptr, ptr } %29, 0
  %31 = extractvalue { ptr, ptr } %29, 1
  %32 = tail call { ptr, ptr } @block_join(ptr %18, ptr %19, ptr %30, ptr %31) #10
  %33 = extractvalue { ptr, ptr } %32, 0
  %34 = extractvalue { ptr, ptr } %32, 1
  %35 = tail call { ptr, ptr } @gen_call(ptr noundef nonnull @.str.10, ptr %33, ptr %34) #10
  %36 = extractvalue { ptr, ptr } %35, 0
  %37 = extractvalue { ptr, ptr } %35, 1
  %38 = tail call { ptr, ptr } @block_join(ptr %15, ptr %16, ptr %36, ptr %37) #10
  ret { ptr, ptr } %38
}